; ModuleID = '17/1001.c'
source_filename = "17/1001.c"
target datalayout = "e-m:e-p270:32:32-p271:32:32-p272:64:64-i64:64-f80:128-n8:16:32:64-S128"
target triple = "x86_64-pc-linux-gnu"

@.str = private unnamed_addr constant [3 x i8] c"%d\00", align 1
@.str.1 = private unnamed_addr constant [2 x i8] c"\0A\00", align 1
@.str.2 = private unnamed_addr constant [2 x i8] c" \00", align 1
@.str.3 = private unnamed_addr constant [2 x i8] c"$\00", align 1
@.str.4 = private unnamed_addr constant [2 x i8] c"?\00", align 1

; Function Attrs: noinline nounwind uwtable
define dso_local i32 @main() #0 {
  %1 = alloca i32, align 4
  %2 = alloca [105 x i8], align 16
  %3 = alloca i32, align 4
  %4 = alloca i32, align 4
  %5 = alloca i32, align 4
  %6 = alloca i32, align 4
  %7 = alloca [105 x i32], align 16
  store i32 0, i32* %1, align 4
  %8 = call i32 (i8*, ...) @__isoc99_scanf(i8* getelementptr inbounds ([3 x i8], [3 x i8]* @.str, i64 0, i64 0), i32* %3)
  br label %9

9:                                                ; preds = %130, %0
  %10 = load i32, i32* %3, align 4
  %11 = add nsw i32 %10, -1
  store i32 %11, i32* %3, align 4
  %12 = icmp ne i32 %10, 0
  br i1 %12, label %13, label %131

13:                                               ; preds = %9
  br label %14

14:                                               ; preds = %128, %13
  %15 = getelementptr inbounds [105 x i8], [105 x i8]* %2, i64 0, i64 0
  %16 = call i32 (i8*, ...) bitcast (i32 (...)* @gets to i32 (i8*, ...)*)(i8* %15)
  %17 = icmp ne i32 %16, 0
  br i1 %17, label %18, label %130

18:                                               ; preds = %14
  %19 = getelementptr inbounds [105 x i8], [105 x i8]* %2, i64 0, i64 0
  %20 = call i64 @strlen(i8* %19) #3
  %21 = trunc i64 %20 to i32
  store i32 %21, i32* %4, align 4
  store i32 0, i32* %5, align 4
  store i32 0, i32* %5, align 4
  br label %22

22:                                               ; preds = %56, %18
  %23 = load i32, i32* %5, align 4
  %24 = sext i32 %23 to i64
  %25 = getelementptr inbounds [105 x i8], [105 x i8]* %2, i64 0, i64 %24
  %26 = load i8, i8* %25, align 1
  %27 = icmp ne i8 %26, 0
  br i1 %27, label %28, label %59

28:                                               ; preds = %22
  %29 = load i32, i32* %5, align 4
  %30 = sext i32 %29 to i64
  %31 = getelementptr inbounds [105 x i8], [105 x i8]* %2, i64 0, i64 %30
  %32 = load i8, i8* %31, align 1
  %33 = sext i8 %32 to i32
  %34 = icmp eq i32 %33, 40
  br i1 %34, label %35, label %39

35:                                               ; preds = %28
  %36 = load i32, i32* %5, align 4
  %37 = sext i32 %36 to i64
  %38 = getelementptr inbounds [105 x i32], [105 x i32]* %7, i64 0, i64 %37
  store i32 1, i32* %38, align 4
  br label %55

39:                                               ; preds = %28
  %40 = load i32, i32* %5, align 4
  %41 = sext i32 %40 to i64
  %42 = getelementptr inbounds [105 x i8], [105 x i8]* %2, i64 0, i64 %41
  %43 = load i8, i8* %42, align 1
  %44 = sext i8 %43 to i32
  %45 = icmp eq i32 %44, 41
  br i1 %45, label %46, label %50

46:                                               ; preds = %39
  %47 = load i32, i32* %5, align 4
  %48 = sext i32 %47 to i64
  %49 = getelementptr inbounds [105 x i32], [105 x i32]* %7, i64 0, i64 %48
  store i32 -1, i32* %49, align 4
  br label %54

50:                                               ; preds = %39
  %51 = load i32, i32* %5, align 4
  %52 = sext i32 %51 to i64
  %53 = getelementptr inbounds [105 x i32], [105 x i32]* %7, i64 0, i64 %52
  store i32 0, i32* %53, align 4
  br label %54

54:                                               ; preds = %50, %46
  br label %55

55:                                               ; preds = %54, %35
  br label %56

56:                                               ; preds = %55
  %57 = load i32, i32* %5, align 4
  %58 = add nsw i32 %57, 1
  store i32 %58, i32* %5, align 4
  br label %22

59:                                               ; preds = %22
  store i32 0, i32* %5, align 4
  br label %60

60:                                               ; preds = %94, %59
  %61 = load i32, i32* %5, align 4
  %62 = load i32, i32* %4, align 4
  %63 = icmp slt i32 %61, %62
  br i1 %63, label %64, label %97

64:                                               ; preds = %60
  %65 = load i32, i32* %5, align 4
  %66 = sext i32 %65 to i64
  %67 = getelementptr inbounds [105 x i32], [105 x i32]* %7, i64 0, i64 %66
  %68 = load i32, i32* %67, align 4
  %69 = icmp eq i32 %68, -1
  br i1 %69, label %70, label %93

70:                                               ; preds = %64
  %71 = load i32, i32* %5, align 4
  store i32 %71, i32* %6, align 4
  br label %72

72:                                               ; preds = %89, %70
  %73 = load i32, i32* %6, align 4
  %74 = icmp sge i32 %73, 0
  br i1 %74, label %75, label %92

75:                                               ; preds = %72
  %76 = load i32, i32* %6, align 4
  %77 = sext i32 %76 to i64
  %78 = getelementptr inbounds [105 x i32], [105 x i32]* %7, i64 0, i64 %77
  %79 = load i32, i32* %78, align 4
  %80 = icmp eq i32 %79, 1
  br i1 %80, label %81, label %88

81:                                               ; preds = %75
  %82 = load i32, i32* %5, align 4
  %83 = sext i32 %82 to i64
  %84 = getelementptr inbounds [105 x i32], [105 x i32]* %7, i64 0, i64 %83
  store i32 0, i32* %84, align 4
  %85 = load i32, i32* %6, align 4
  %86 = sext i32 %85 to i64
  %87 = getelementptr inbounds [105 x i32], [105 x i32]* %7, i64 0, i64 %86
  store i32 0, i32* %87, align 4
  br label %92

88:                                               ; preds = %75
  br label %89

89:                                               ; preds = %88
  %90 = load i32, i32* %6, align 4
  %91 = add nsw i32 %90, -1
  store i32 %91, i32* %6, align 4
  br label %72

92:                                               ; preds = %81, %72
  br label %93

93:                                               ; preds = %92, %64
  br label %94

94:                                               ; preds = %93
  %95 = load i32, i32* %5, align 4
  %96 = add nsw i32 %95, 1
  store i32 %96, i32* %5, align 4
  br label %60

97:                                               ; preds = %60
  %98 = getelementptr inbounds [105 x i8], [105 x i8]* %2, i64 0, i64 0
  %99 = call i32 @puts(i8* %98)
  %100 = call i32 (i8*, ...) @printf(i8* getelementptr inbounds ([2 x i8], [2 x i8]* @.str.1, i64 0, i64 0))
  store i32 0, i32* %5, align 4
  br label %101

101:                                              ; preds = %125, %97
  %102 = load i32, i32* %5, align 4
  %103 = load i32, i32* %4, align 4
  %104 = icmp slt i32 %102, %103
  br i1 %104, label %105, label %128

105:                                              ; preds = %101
  %106 = load i32, i32* %5, align 4
  %107 = sext i32 %106 to i64
  %108 = getelementptr inbounds [105 x i32], [105 x i32]* %7, i64 0, i64 %107
  %109 = load i32, i32* %108, align 4
  %110 = icmp eq i32 %109, 0
  br i1 %110, label %111, label %113

111:                                              ; preds = %105
  %112 = call i32 (i8*, ...) @printf(i8* getelementptr inbounds ([2 x i8], [2 x i8]* @.str.2, i64 0, i64 0))
  br label %124

113:                                              ; preds = %105
  %114 = load i32, i32* %5, align 4
  %115 = sext i32 %114 to i64
  %116 = getelementptr inbounds [105 x i32], [105 x i32]* %7, i64 0, i64 %115
  %117 = load i32, i32* %116, align 4
  %118 = icmp eq i32 %117, 1
  br i1 %118, label %119, label %121

119:                                              ; preds = %113
  %120 = call i32 (i8*, ...) @printf(i8* getelementptr inbounds ([2 x i8], [2 x i8]* @.str.3, i64 0, i64 0))
  br label %123

121:                                              ; preds = %113
  %122 = call i32 (i8*, ...) @printf(i8* getelementptr inbounds ([2 x i8], [2 x i8]* @.str.4, i64 0, i64 0))
  br label %123

123:                                              ; preds = %121, %119
  br label %124

124:                                              ; preds = %123, %111
  br label %125

125:                                              ; preds = %124
  %126 = load i32, i32* %5, align 4
  %127 = add nsw i32 %126, 1
  store i32 %127, i32* %5, align 4
  br label %101

128:                                              ; preds = %101
  %129 = call i32 (i8*, ...) @printf(i8* getelementptr inbounds ([2 x i8], [2 x i8]* @.str.1, i64 0, i64 0))
  br label %14

130:                                              ; preds = %14
  br label %9

131:                                              ; preds = %9
  ret i32 0
}

declare dso_local i32 @__isoc99_scanf(i8*, ...) #1

declare dso_local i32 @gets(...) #1

; Function Attrs: nounwind readonly
declare dso_local i64 @strlen(i8*) #2

declare dso_local i32 @puts(i8*) #1

declare dso_local i32 @printf(i8*, ...) #1


!llvm.module.flags = !{!0}
!llvm.ident = !{!1}

!0 = !{i32 1, !"wchar_size", i32 4}
!1 = !{!"clang version 10.0.0-4ubuntu1 "}
